; Function Attrs: null_pointer_is_valid sspstrong uwtable
define internal noundef ptr @identsecret_list_copy_cb(ptr noundef returned writeonly captures(ret: address, provenance) initializes((0, 24)) %0, ptr noundef readonly captures(none) %1, i64 %2) #0 {
  %4 = load ptr, ptr %1, align 8
  %5 = tail call noalias ptr @g_strdup(ptr noundef %4)
  store ptr %5, ptr %0, align 8
  %6 = getelementptr inbounds nuw i8, ptr %1, i64 8
  %7 = load ptr, ptr %6, align 8
  %8 = tail call noalias ptr @g_strdup(ptr noundef %7)
  %9 = getelementptr inbounds nuw i8, ptr %0, i64 8
  store ptr %8, ptr %9, align 8
  %10 = getelementptr inbounds nuw i8, ptr %1, i64 16
  %11 = load ptr, ptr %10, align 8
  %12 = tail call noalias ptr @g_strdup(ptr noundef %11)
  %13 = getelementptr inbounds nuw i8, ptr %0, i64 16
  store ptr %12, ptr %13, align 8
  ret ptr %0
}